

Microchip MPLAB XC8 Assembler V2.46 build 20240104201356 
                                                                                               Tue Aug 13 22:19:23 2024

Microchip MPLAB XC8 C Compiler v2.46 (Free license) build 20240104201356 Og1 
     1                           	processor	18F4620
     2                           	fnconf	rparam,??,?,0
     3                           	pagewidth 120
     4                           	opt	flic
     5                           	psect	idataCOMRAM,global,class=CODE,delta=1,noexec
     6                           	psect	cinit,global,reloc=2,class=CODE,delta=1
     7                           	psect	bssCOMRAM,global,class=COMRAM,space=1,delta=1,lowdata,noexec
     8                           	psect	dataCOMRAM,global,class=COMRAM,space=1,delta=1,lowdata,noexec
     9                           	psect	cstackCOMRAM,global,class=COMRAM,space=1,delta=1,lowdata,noexec
    10                           	psect	text0,global,reloc=2,class=CODE,delta=1
    11                           	psect	text1,global,reloc=2,class=CODE,delta=1
    12                           	psect	text2,global,reloc=2,class=CODE,delta=1
    13                           	psect	text3,global,reloc=2,class=CODE,delta=1
    14                           	psect	text4,global,reloc=2,class=CODE,delta=1
    15                           	psect	text5,global,reloc=2,class=CODE,delta=1
    16                           	psect	text6,global,reloc=2,class=CODE,delta=1
    17                           	psect	smallconst,global,reloc=2,class=SMALLCONST,delta=1,noexec
    18                           	psect	intsave_regs,global,class=BIGRAM,space=1,delta=1,noexec
    19                           	psect	rparam,global,class=COMRAM,space=1,delta=1,noexec
    20   000000                     
    21                           ; Generated 17/10/2023 GMT
    22                           ; 
    23                           ; Copyright © 2023, Microchip Technology Inc. and its subsidiaries ("Microchip")
    24                           ; All rights reserved.
    25                           ; 
    26                           ; This software is developed by Microchip Technology Inc. and its subsidiaries ("Microch
      +                          ip").
    27                           ; 
    28                           ; Redistribution and use in source and binary forms, with or without modification, are
    29                           ; permitted provided that the following conditions are met:
    30                           ; 
    31                           ;     1. Redistributions of source code must retain the above copyright notice, this lis
      +                          t of
    32                           ;        conditions and the following disclaimer.
    33                           ; 
    34                           ;     2. Redistributions in binary form must reproduce the above copyright notice, this 
      +                          list
    35                           ;        of conditions and the following disclaimer in the documentation and/or other
    36                           ;        materials provided with the distribution. Publication is not required when
    37                           ;        this file is used in an embedded application.
    38                           ; 
    39                           ;     3. Microchip's name may not be used to endorse or promote products derived from th
      +                          is
    40                           ;        software without specific prior written permission.
    41                           ; 
    42                           ; THIS SOFTWARE IS PROVIDED BY MICROCHIP "AS IS" AND ANY EXPRESS OR IMPLIED WARRANTIES,
    43                           ; INCLUDING, BUT NOT LIMITED TO, THE IMPLIED WARRANTIES OF MERCHANTABILITY AND FITNESS F
      +                          OR
    44                           ; PURPOSE ARE DISCLAIMED.  IN NO EVENT SHALL MICROCHIP BE LIABLE FOR ANY DIRECT, INDIREC
      +                          T,
    45                           ; INCIDENTAL, SPECIAL, EXEMPLARY, OR CONSEQUENTIAL DAMAGES (INCLUDING BUT NOT LIMITED TO
    46                           ; PROCUREMENT OF SUBSTITUTE GOODS OR SERVICES; LOSS OF USE, DATA OR PROFITS; OR BUSINESS
    47                           ; INTERRUPTION) HOWSOEVER CAUSED AND ON ANY THEORY OF LIABILITY, WHETHER IN CONTRACT, ST
      +                          RICT
    48                           ; LIABILITY, OR TORT (INCLUDING NEGLIGENCE OR OTHERWISE) ARISING IN ANY WAY OUT OF THE U
      +                          SE OF
    49                           ; THIS SOFTWARE, EVEN IF ADVISED OF THE POSSIBILITY OF SUCH DAMAGE.
    50                           ; 
    51                           ; 
    52                           ; Code-generator required, PIC18F4620 Definitions
    53                           ; 
    54                           ; SFR Addresses
    55   000000                     
    56                           	psect	idataCOMRAM
    57   00144A                     __pidataCOMRAM:
    58                           	callstack 0
    59                           
    60                           ;initializer for _PORT_register
    61   00144A  80                 	db	128
    62   00144B  0F                 	db	15
    63   00144C  81                 	db	129
    64   00144D  0F                 	db	15
    65   00144E  82                 	db	130
    66   00144F  0F                 	db	15
    67   001450  83                 	db	131
    68   001451  0F                 	db	15
    69   001452  84                 	db	132
    70   001453  0F                 	db	15
    71                           
    72                           ;initializer for _LAT_register
    73   001454  89                 	db	137
    74   001455  0F                 	db	15
    75   001456  8A                 	db	138
    76   001457  0F                 	db	15
    77   001458  8B                 	db	139
    78   001459  0F                 	db	15
    79   00145A  8C                 	db	140
    80   00145B  0F                 	db	15
    81   00145C  8D                 	db	141
    82   00145D  0F                 	db	15
    83                           
    84                           ;initializer for _TRIS_register
    85   00145E  92                 	db	146
    86   00145F  0F                 	db	15
    87   001460  93                 	db	147
    88   001461  0F                 	db	15
    89   001462  94                 	db	148
    90   001463  0F                 	db	15
    91   001464  95                 	db	149
    92   001465  0F                 	db	15
    93   001466  96                 	db	150
    94   001467  0F                 	db	15
    95                           
    96                           ;initializer for _btn_2
    97   001468  CB                 	db	203
    98                           
    99                           ;initializer for _btn_1
   100   001469  C3                 	db	195
   101                           
   102                           ;initializer for _led_8
   103   00146A  BA                 	db	186
   104                           
   105                           ;initializer for _led_7
   106   00146B  B2                 	db	178
   107                           
   108                           ;initializer for _led_6
   109   00146C  AA                 	db	170
   110                           
   111                           ;initializer for _led_5
   112   00146D  A2                 	db	162
   113                           
   114                           ;initializer for _led_4
   115   00146E  9A                 	db	154
   116                           
   117                           ;initializer for _led_3
   118   00146F  92                 	db	146
   119                           
   120                           ;initializer for _led_2
   121   001470  8A                 	db	138
   122                           
   123                           ;initializer for _led_1
   124   001471  82                 	db	130
   125   000000                     _PORTE	set	3972
   126   000000                     _PORTD	set	3971
   127   000000                     _PORTC	set	3970
   128   000000                     _PORTB	set	3969
   129   000000                     _PORTA	set	3968
   130   000000                     _LATA	set	3977
   131   000000                     _TRISA	set	3986
   132   000000                     _TRISE	set	3990
   133   000000                     _TRISD	set	3989
   134   000000                     _TRISC	set	3988
   135   000000                     _TRISB	set	3987
   136   000000                     _LATE	set	3981
   137   000000                     _LATD	set	3980
   138   000000                     _LATC	set	3979
   139   000000                     _LATB	set	3978
   140                           
   141                           ; #config settings
   142                           
   143                           	psect	cinit
   144   001418                     __pcinit:
   145                           	callstack 0
   146   001418                     start_initialization:
   147                           	callstack 0
   148   001418                     __initialization:
   149                           	callstack 0
   150                           
   151                           ; Initialize objects allocated to COMRAM (40 bytes)
   152                           ; load TBLPTR registers with __pidataCOMRAM
   153   001418  0E4A               	movlw	low __pidataCOMRAM
   154   00141A  6EF6               	movwf	tblptrl,c
   155   00141C  0E14               	movlw	high __pidataCOMRAM
   156   00141E  6EF7               	movwf	tblptrh,c
   157   001420  0E00               	movlw	low (__pidataCOMRAM shr (0+16))
   158   001422  6EF8               	movwf	tblptru,c
   159   001424  EE00  F001         	lfsr	0,__pdataCOMRAM
   160   001428  EE10 F028          	lfsr	1,40
   161   00142C                     copy_data0:
   162   00142C  0009               	tblrd		*+
   163   00142E  CFF5 FFEE          	movff	tablat,postinc0
   164   001432  50E5               	movf	postdec1,w,c
   165   001434  50E1               	movf	fsr1l,w,c
   166   001436  E1FA               	bnz	copy_data0
   167                           
   168                           ; Clear objects allocated to COMRAM (4 bytes)
   169   001438  6A34               	clrf	(__pbssCOMRAM+3)& (0+255),c
   170   00143A  6A33               	clrf	(__pbssCOMRAM+2)& (0+255),c
   171   00143C  6A32               	clrf	(__pbssCOMRAM+1)& (0+255),c
   172   00143E  6A31               	clrf	__pbssCOMRAM& (0+255),c
   173   001440                     end_of_initialization:
   174                           	callstack 0
   175   001440                     __end_of__initialization:
   176                           	callstack 0
   177   001440  0E00               	movlw	low (__Lmediumconst shr (0+16))
   178   001442  6EF8               	movwf	tblptru,c
   179   001444  0100               	movlb	0
   180   001446  EFBB  F009         	goto	_main	;jump to C main() function
   181                           
   182                           	psect	bssCOMRAM
   183   000031                     __pbssCOMRAM:
   184                           	callstack 0
   185   000031                     _counter:
   186                           	callstack 0
   187   000031                     	ds	1
   188   000032                     _ret:
   189                           	callstack 0
   190   000032                     	ds	1
   191   000033                     _state1:
   192                           	callstack 0
   193   000033                     	ds	1
   194   000034                     _state:
   195                           	callstack 0
   196   000034                     	ds	1
   197                           
   198                           	psect	dataCOMRAM
   199   000001                     __pdataCOMRAM:
   200                           	callstack 0
   201   000001                     _PORT_register:
   202                           	callstack 0
   203   000001                     	ds	10
   204   00000B                     _LAT_register:
   205                           	callstack 0
   206   00000B                     	ds	10
   207   000015                     _TRIS_register:
   208                           	callstack 0
   209   000015                     	ds	10
   210   00001F                     _btn_2:
   211                           	callstack 0
   212   00001F                     	ds	1
   213   000020                     _btn_1:
   214                           	callstack 0
   215   000020                     	ds	1
   216   000021                     _led_8:
   217                           	callstack 0
   218   000021                     	ds	1
   219   000022                     _led_7:
   220                           	callstack 0
   221   000022                     	ds	1
   222   000023                     _led_6:
   223                           	callstack 0
   224   000023                     	ds	1
   225   000024                     _led_5:
   226                           	callstack 0
   227   000024                     	ds	1
   228   000025                     _led_4:
   229                           	callstack 0
   230   000025                     	ds	1
   231   000026                     _led_3:
   232                           	callstack 0
   233   000026                     	ds	1
   234   000027                     _led_2:
   235                           	callstack 0
   236   000027                     	ds	1
   237   000028                     _led_1:
   238                           	callstack 0
   239   000028                     	ds	1
   240                           
   241                           	psect	cstackCOMRAM
   242   000029                     __pcstackCOMRAM:
   243                           	callstack 0
   244   000029                     gpio_pin_direction_init@_PIN_:
   245                           	callstack 0
   246   000029                     gpio_pin_write_logic@_PIN_:
   247                           	callstack 0
   248   000029                     gpio_pin_read_logic@_PIN_:
   249                           	callstack 0
   250   000029                     gpio_port_direction_init@direction:
   251                           	callstack 0
   252                           
   253                           ; 1 bytes @ 0x0
   254   000029                     	ds	1
   255   00002A                     ??_gpio_pin_direction_init:
   256   00002A                     ??_gpio_port_direction_init:
   257   00002A                     gpio_pin_write_logic@logic:
   258                           	callstack 0
   259   00002A                     gpio_pin_read_logic@logic:
   260                           	callstack 0
   261                           
   262                           ; 1 bytes @ 0x1
   263   00002A                     	ds	1
   264   00002B                     ??_gpio_pin_write_logic:
   265   00002B                     ??_gpio_pin_read_logic:
   266                           
   267                           ; 1 bytes @ 0x2
   268   00002B                     	ds	1
   269   00002C                     gpio_port_direction_init@_PORT_:
   270                           	callstack 0
   271                           
   272                           ; 1 bytes @ 0x3
   273   00002C                     	ds	3
   274   00002F                     gpio_pin_direction_init@ret:
   275                           	callstack 0
   276                           
   277                           ; 1 bytes @ 0x6
   278   00002F                     	ds	1
   279   000030                     gpio_pin_write_logic@ret:
   280                           	callstack 0
   281                           
   282                           ; 1 bytes @ 0x7
   283   000030                     	ds	1
   284   000031                     
   285                           ; 1 bytes @ 0x8
   286 ;;
   287 ;;Main: autosize = 0, tempsize = 0, incstack = 0, save=0
   288 ;;
   289 ;; *************** function _main *****************
   290 ;; Defined at:
   291 ;;		line 27 in file "apllication.c"
   292 ;; Parameters:    Size  Location     Type
   293 ;;		None
   294 ;; Auto vars:     Size  Location     Type
   295 ;;		None
   296 ;; Return value:  Size  Location     Type
   297 ;;                  2  161[None  ] int 
   298 ;; Registers used:
   299 ;;		wreg, fsr1l, fsr1h, fsr2l, fsr2h, status,2, status,0, prodl, prodh, cstack
   300 ;; Tracked objects:
   301 ;;		On entry : 0/0
   302 ;;		On exit  : 0/0
   303 ;;		Unchanged: 0/0
   304 ;; Data sizes:     COMRAM   BANK0   BANK1   BANK2   BANK3   BANK4   BANK5   BANK6   BANK7   BANK8   BANK9  BANK10  BANK1
      +1  BANK12  BANK13  BANK14  BANK15
   305 ;;      Params:         0       0       0       0       0       0       0       0       0       0       0       0       
      +0       0       0       0       0
   306 ;;      Locals:         0       0       0       0       0       0       0       0       0       0       0       0       
      +0       0       0       0       0
   307 ;;      Temps:          0       0       0       0       0       0       0       0       0       0       0       0       
      +0       0       0       0       0
   308 ;;      Totals:         0       0       0       0       0       0       0       0       0       0       0       0       
      +0       0       0       0       0
   309 ;;Total ram usage:        0 bytes
   310 ;; Hardware stack levels required when called: 2
   311 ;; This function calls:
   312 ;;		_gpio_pin_direction_init
   313 ;;		_gpio_pin_read_logic
   314 ;;		_gpio_port_direction_init
   315 ;;		_init
   316 ;;		_init2
   317 ;; This function is called by:
   318 ;;		Startup code after reset
   319 ;; This function uses a non-reentrant model
   320 ;;
   321                           
   322                           	psect	text0
   323   001376                     __ptext0:
   324                           	callstack 0
   325   001376                     _main:
   326                           	callstack 29
   327   001376                     
   328                           ;apllication.c: 29:     gpio_pin_direction_init(&btn_1);
   329   001376  0E20               	movlw	low _btn_1
   330   001378  6E29               	movwf	gpio_pin_direction_init@_PIN_^0,c
   331   00137A  EC01  F008         	call	_gpio_pin_direction_init	;wreg free
   332                           
   333                           ;apllication.c: 30:     gpio_pin_direction_init(&btn_2);
   334   00137E  0E1F               	movlw	low _btn_2
   335   001380  6E29               	movwf	gpio_pin_direction_init@_PIN_^0,c
   336   001382  EC01  F008         	call	_gpio_pin_direction_init	;wreg free
   337   001386                     l1087:
   338                           
   339                           ;apllication.c: 32:     {;apllication.c: 33:         gpio_pin_read_logic(&btn_1 ,&state)
      +                          ;
   340   001386  0E20               	movlw	low _btn_1
   341   001388  6E29               	movwf	gpio_pin_read_logic@_PIN_^0,c
   342   00138A  0E34               	movlw	low _state
   343   00138C  6E2A               	movwf	gpio_pin_read_logic@logic^0,c
   344   00138E  EC12  F009         	call	_gpio_pin_read_logic	;wreg free
   345   001392                     
   346                           ;apllication.c: 34:         gpio_pin_read_logic(&btn_2 ,&state1);
   347   001392  0E1F               	movlw	low _btn_2
   348   001394  6E29               	movwf	gpio_pin_read_logic@_PIN_^0,c
   349   001396  0E33               	movlw	low _state1
   350   001398  6E2A               	movwf	gpio_pin_read_logic@logic^0,c
   351   00139A  EC12  F009         	call	_gpio_pin_read_logic	;wreg free
   352   00139E                     
   353                           ;apllication.c: 35:         if(state == 1)
   354   00139E  0434               	decf	_state^0,w,c
   355   0013A0  A4D8               	btfss	status,2,c
   356   0013A2  EFD5  F009         	goto	u421
   357   0013A6  EFD7  F009         	goto	u420
   358   0013AA                     u421:
   359   0013AA  EFDB  F009         	goto	l1095
   360   0013AE                     u420:
   361   0013AE                     
   362                           ;apllication.c: 36:         {;apllication.c: 37:             init();
   363   0013AE  EC85  F009         	call	_init	;wreg free
   364                           
   365                           ;apllication.c: 38:         }
   366   0013B2  EFC3  F009         	goto	l1087
   367   0013B6                     l1095:
   368   0013B6  0433               	decf	_state1^0,w,c
   369   0013B8  A4D8               	btfss	status,2,c
   370   0013BA  EFE1  F009         	goto	u431
   371   0013BE  EFE3  F009         	goto	u430
   372   0013C2                     u431:
   373   0013C2  EFE7  F009         	goto	l1099
   374   0013C6                     u430:
   375   0013C6                     
   376                           ;apllication.c: 40:         {;apllication.c: 41:             init2();
   377   0013C6  EC4F  F009         	call	_init2	;wreg free
   378                           
   379                           ;apllication.c: 42:         }
   380   0013CA  EFC3  F009         	goto	l1087
   381   0013CE                     l1099:
   382                           
   383                           ;apllication.c: 44:         {;apllication.c: 45:            gpio_port_direction_init(POR
      +                          TC_INDEX,0xFF);
   384   0013CE  0EFF               	movlw	255
   385   0013D0  6E29               	movwf	gpio_port_direction_init@direction^0,c
   386   0013D2  0E02               	movlw	2
   387   0013D4  ECF0  F009         	call	_gpio_port_direction_init
   388   0013D8  EFC3  F009         	goto	l1087
   389   0013DC  EF00  F000         	goto	start
   390   0013E0                     __end_of_main:
   391                           	callstack 0
   392                           
   393 ;; *************** function _init2 *****************
   394 ;; Defined at:
   395 ;;		line 67 in file "apllication.c"
   396 ;; Parameters:    Size  Location     Type
   397 ;;		None
   398 ;; Auto vars:     Size  Location     Type
   399 ;;		None
   400 ;; Return value:  Size  Location     Type
   401 ;;                  1    wreg      void 
   402 ;; Registers used:
   403 ;;		wreg, fsr2l, fsr2h, status,2, status,0, prodl, prodh, cstack
   404 ;; Tracked objects:
   405 ;;		On entry : 0/0
   406 ;;		On exit  : 0/0
   407 ;;		Unchanged: 0/0
   408 ;; Data sizes:     COMRAM   BANK0   BANK1   BANK2   BANK3   BANK4   BANK5   BANK6   BANK7   BANK8   BANK9  BANK10  BANK1
      +1  BANK12  BANK13  BANK14  BANK15
   409 ;;      Params:         0       0       0       0       0       0       0       0       0       0       0       0       
      +0       0       0       0       0
   410 ;;      Locals:         0       0       0       0       0       0       0       0       0       0       0       0       
      +0       0       0       0       0
   411 ;;      Temps:          0       0       0       0       0       0       0       0       0       0       0       0       
      +0       0       0       0       0
   412 ;;      Totals:         0       0       0       0       0       0       0       0       0       0       0       0       
      +0       0       0       0       0
   413 ;;Total ram usage:        0 bytes
   414 ;; Hardware stack levels used: 1
   415 ;; Hardware stack levels required when called: 1
   416 ;; This function calls:
   417 ;;		_gpio_pin_write_logic
   418 ;;		_gpio_port_direction_init
   419 ;; This function is called by:
   420 ;;		_main
   421 ;; This function uses a non-reentrant model
   422 ;;
   423                           
   424                           	psect	text1
   425   00129E                     __ptext1:
   426                           	callstack 0
   427   00129E                     _init2:
   428                           	callstack 29
   429   00129E                     
   430                           ;apllication.c: 69:     gpio_port_direction_init(PORTC_INDEX,0xAA);
   431   00129E  0EAA               	movlw	170
   432   0012A0  6E29               	movwf	gpio_port_direction_init@direction^0,c
   433   0012A2  0E02               	movlw	2
   434   0012A4  ECF0  F009         	call	_gpio_port_direction_init
   435                           
   436                           ;apllication.c: 70:     gpio_pin_write_logic(&led_1,high);
   437   0012A8  0E28               	movlw	low _led_1
   438   0012AA  6E29               	movwf	gpio_pin_write_logic@_PIN_^0,c
   439   0012AC  0E01               	movlw	1
   440   0012AE  6E2A               	movwf	gpio_pin_write_logic@logic^0,c
   441   0012B0  EC8A  F008         	call	_gpio_pin_write_logic	;wreg free
   442                           
   443                           ;apllication.c: 71:     gpio_pin_write_logic(&led_2,high);
   444   0012B4  0E27               	movlw	low _led_2
   445   0012B6  6E29               	movwf	gpio_pin_write_logic@_PIN_^0,c
   446   0012B8  0E01               	movlw	1
   447   0012BA  6E2A               	movwf	gpio_pin_write_logic@logic^0,c
   448   0012BC  EC8A  F008         	call	_gpio_pin_write_logic	;wreg free
   449                           
   450                           ;apllication.c: 72:     gpio_pin_write_logic(&led_3,high);
   451   0012C0  0E26               	movlw	low _led_3
   452   0012C2  6E29               	movwf	gpio_pin_write_logic@_PIN_^0,c
   453   0012C4  0E01               	movlw	1
   454   0012C6  6E2A               	movwf	gpio_pin_write_logic@logic^0,c
   455   0012C8  EC8A  F008         	call	_gpio_pin_write_logic	;wreg free
   456                           
   457                           ;apllication.c: 73:     gpio_pin_write_logic(&led_4,high);
   458   0012CC  0E25               	movlw	low _led_4
   459   0012CE  6E29               	movwf	gpio_pin_write_logic@_PIN_^0,c
   460   0012D0  0E01               	movlw	1
   461   0012D2  6E2A               	movwf	gpio_pin_write_logic@logic^0,c
   462   0012D4  EC8A  F008         	call	_gpio_pin_write_logic	;wreg free
   463                           
   464                           ;apllication.c: 74:     gpio_pin_write_logic(&led_5,high);
   465   0012D8  0E24               	movlw	low _led_5
   466   0012DA  6E29               	movwf	gpio_pin_write_logic@_PIN_^0,c
   467   0012DC  0E01               	movlw	1
   468   0012DE  6E2A               	movwf	gpio_pin_write_logic@logic^0,c
   469   0012E0  EC8A  F008         	call	_gpio_pin_write_logic	;wreg free
   470                           
   471                           ;apllication.c: 75:     gpio_pin_write_logic(&led_6,high);
   472   0012E4  0E23               	movlw	low _led_6
   473   0012E6  6E29               	movwf	gpio_pin_write_logic@_PIN_^0,c
   474   0012E8  0E01               	movlw	1
   475   0012EA  6E2A               	movwf	gpio_pin_write_logic@logic^0,c
   476   0012EC  EC8A  F008         	call	_gpio_pin_write_logic	;wreg free
   477                           
   478                           ;apllication.c: 76:     gpio_pin_write_logic(&led_7,high);
   479   0012F0  0E22               	movlw	low _led_7
   480   0012F2  6E29               	movwf	gpio_pin_write_logic@_PIN_^0,c
   481   0012F4  0E01               	movlw	1
   482   0012F6  6E2A               	movwf	gpio_pin_write_logic@logic^0,c
   483   0012F8  EC8A  F008         	call	_gpio_pin_write_logic	;wreg free
   484                           
   485                           ;apllication.c: 77:     gpio_pin_write_logic(&led_8,high);
   486   0012FC  0E21               	movlw	low _led_8
   487   0012FE  6E29               	movwf	gpio_pin_write_logic@_PIN_^0,c
   488   001300  0E01               	movlw	1
   489   001302  6E2A               	movwf	gpio_pin_write_logic@logic^0,c
   490   001304  EC8A  F008         	call	_gpio_pin_write_logic	;wreg free
   491   001308  0012               	return		;funcret
   492   00130A                     __end_of_init2:
   493                           	callstack 0
   494                           
   495 ;; *************** function _init *****************
   496 ;; Defined at:
   497 ;;		line 55 in file "apllication.c"
   498 ;; Parameters:    Size  Location     Type
   499 ;;		None
   500 ;; Auto vars:     Size  Location     Type
   501 ;;		None
   502 ;; Return value:  Size  Location     Type
   503 ;;                  1    wreg      void 
   504 ;; Registers used:
   505 ;;		wreg, fsr2l, fsr2h, status,2, status,0, prodl, prodh, cstack
   506 ;; Tracked objects:
   507 ;;		On entry : 0/0
   508 ;;		On exit  : 0/0
   509 ;;		Unchanged: 0/0
   510 ;; Data sizes:     COMRAM   BANK0   BANK1   BANK2   BANK3   BANK4   BANK5   BANK6   BANK7   BANK8   BANK9  BANK10  BANK1
      +1  BANK12  BANK13  BANK14  BANK15
   511 ;;      Params:         0       0       0       0       0       0       0       0       0       0       0       0       
      +0       0       0       0       0
   512 ;;      Locals:         0       0       0       0       0       0       0       0       0       0       0       0       
      +0       0       0       0       0
   513 ;;      Temps:          0       0       0       0       0       0       0       0       0       0       0       0       
      +0       0       0       0       0
   514 ;;      Totals:         0       0       0       0       0       0       0       0       0       0       0       0       
      +0       0       0       0       0
   515 ;;Total ram usage:        0 bytes
   516 ;; Hardware stack levels used: 1
   517 ;; Hardware stack levels required when called: 1
   518 ;; This function calls:
   519 ;;		_gpio_pin_write_logic
   520 ;;		_gpio_port_direction_init
   521 ;; This function is called by:
   522 ;;		_main
   523 ;; This function uses a non-reentrant model
   524 ;;
   525                           
   526                           	psect	text2
   527   00130A                     __ptext2:
   528                           	callstack 0
   529   00130A                     _init:
   530                           	callstack 29
   531   00130A                     
   532                           ;apllication.c: 57:     gpio_port_direction_init(PORTC_INDEX,0x00);
   533   00130A  0E00               	movlw	0
   534   00130C  6E29               	movwf	gpio_port_direction_init@direction^0,c
   535   00130E  0E02               	movlw	2
   536   001310  ECF0  F009         	call	_gpio_port_direction_init
   537                           
   538                           ;apllication.c: 58:     gpio_pin_write_logic(&led_1,high);
   539   001314  0E28               	movlw	low _led_1
   540   001316  6E29               	movwf	gpio_pin_write_logic@_PIN_^0,c
   541   001318  0E01               	movlw	1
   542   00131A  6E2A               	movwf	gpio_pin_write_logic@logic^0,c
   543   00131C  EC8A  F008         	call	_gpio_pin_write_logic	;wreg free
   544                           
   545                           ;apllication.c: 59:     gpio_pin_write_logic(&led_2,high);
   546   001320  0E27               	movlw	low _led_2
   547   001322  6E29               	movwf	gpio_pin_write_logic@_PIN_^0,c
   548   001324  0E01               	movlw	1
   549   001326  6E2A               	movwf	gpio_pin_write_logic@logic^0,c
   550   001328  EC8A  F008         	call	_gpio_pin_write_logic	;wreg free
   551                           
   552                           ;apllication.c: 60:     gpio_pin_write_logic(&led_3,high);
   553   00132C  0E26               	movlw	low _led_3
   554   00132E  6E29               	movwf	gpio_pin_write_logic@_PIN_^0,c
   555   001330  0E01               	movlw	1
   556   001332  6E2A               	movwf	gpio_pin_write_logic@logic^0,c
   557   001334  EC8A  F008         	call	_gpio_pin_write_logic	;wreg free
   558                           
   559                           ;apllication.c: 61:     gpio_pin_write_logic(&led_4,high);
   560   001338  0E25               	movlw	low _led_4
   561   00133A  6E29               	movwf	gpio_pin_write_logic@_PIN_^0,c
   562   00133C  0E01               	movlw	1
   563   00133E  6E2A               	movwf	gpio_pin_write_logic@logic^0,c
   564   001340  EC8A  F008         	call	_gpio_pin_write_logic	;wreg free
   565                           
   566                           ;apllication.c: 62:     gpio_pin_write_logic(&led_5,high);
   567   001344  0E24               	movlw	low _led_5
   568   001346  6E29               	movwf	gpio_pin_write_logic@_PIN_^0,c
   569   001348  0E01               	movlw	1
   570   00134A  6E2A               	movwf	gpio_pin_write_logic@logic^0,c
   571   00134C  EC8A  F008         	call	_gpio_pin_write_logic	;wreg free
   572                           
   573                           ;apllication.c: 63:     gpio_pin_write_logic(&led_6,high);
   574   001350  0E23               	movlw	low _led_6
   575   001352  6E29               	movwf	gpio_pin_write_logic@_PIN_^0,c
   576   001354  0E01               	movlw	1
   577   001356  6E2A               	movwf	gpio_pin_write_logic@logic^0,c
   578   001358  EC8A  F008         	call	_gpio_pin_write_logic	;wreg free
   579                           
   580                           ;apllication.c: 64:     gpio_pin_write_logic(&led_7,high);
   581   00135C  0E22               	movlw	low _led_7
   582   00135E  6E29               	movwf	gpio_pin_write_logic@_PIN_^0,c
   583   001360  0E01               	movlw	1
   584   001362  6E2A               	movwf	gpio_pin_write_logic@logic^0,c
   585   001364  EC8A  F008         	call	_gpio_pin_write_logic	;wreg free
   586                           
   587                           ;apllication.c: 65:     gpio_pin_write_logic(&led_8,high);
   588   001368  0E21               	movlw	low _led_8
   589   00136A  6E29               	movwf	gpio_pin_write_logic@_PIN_^0,c
   590   00136C  0E01               	movlw	1
   591   00136E  6E2A               	movwf	gpio_pin_write_logic@logic^0,c
   592   001370  EC8A  F008         	call	_gpio_pin_write_logic	;wreg free
   593   001374  0012               	return		;funcret
   594   001376                     __end_of_init:
   595                           	callstack 0
   596                           
   597 ;; *************** function _gpio_port_direction_init *****************
   598 ;; Defined at:
   599 ;;		line 149 in file "MCAL_layer/GPIO/hal_gpio.c"
   600 ;; Parameters:    Size  Location     Type
   601 ;;  _PORT_          1    wreg     enum E2768
   602 ;;  direction       1    0[COMRAM] unsigned char 
   603 ;; Auto vars:     Size  Location     Type
   604 ;;  _PORT_          1    3[COMRAM] enum E2768
   605 ;;  ret             1    0        unsigned char 
   606 ;; Return value:  Size  Location     Type
   607 ;;                  1    wreg      unsigned char 
   608 ;; Registers used:
   609 ;;		wreg, fsr2l, fsr2h, status,2, status,0, prodl, prodh
   610 ;; Tracked objects:
   611 ;;		On entry : 0/0
   612 ;;		On exit  : 0/0
   613 ;;		Unchanged: 0/0
   614 ;; Data sizes:     COMRAM   BANK0   BANK1   BANK2   BANK3   BANK4   BANK5   BANK6   BANK7   BANK8   BANK9  BANK10  BANK1
      +1  BANK12  BANK13  BANK14  BANK15
   615 ;;      Params:         1       0       0       0       0       0       0       0       0       0       0       0       
      +0       0       0       0       0
   616 ;;      Locals:         1       0       0       0       0       0       0       0       0       0       0       0       
      +0       0       0       0       0
   617 ;;      Temps:          2       0       0       0       0       0       0       0       0       0       0       0       
      +0       0       0       0       0
   618 ;;      Totals:         4       0       0       0       0       0       0       0       0       0       0       0       
      +0       0       0       0       0
   619 ;;Total ram usage:        4 bytes
   620 ;; Hardware stack levels used: 1
   621 ;; This function calls:
   622 ;;		Nothing
   623 ;; This function is called by:
   624 ;;		_main
   625 ;;		_init
   626 ;;		_init2
   627 ;; This function uses a non-reentrant model
   628 ;;
   629                           
   630                           	psect	text3
   631   0013E0                     __ptext3:
   632                           	callstack 0
   633   0013E0                     _gpio_port_direction_init:
   634                           	callstack 29
   635                           
   636                           ;incstack = 0
   637                           ;gpio_port_direction_init@_PORT_ stored from wreg
   638   0013E0  6E2C               	movwf	gpio_port_direction_init@_PORT_^0,c
   639   0013E2                     
   640                           ;MCAL_layer/GPIO/hal_gpio.c: 152:        if(_PORT_ > 5 -1)
   641   0013E2  0E04               	movlw	4
   642   0013E4  642C               	cpfsgt	gpio_port_direction_init@_PORT_^0,c
   643   0013E6  EFF7  F009         	goto	u321
   644   0013EA  EFF9  F009         	goto	u320
   645   0013EE                     u321:
   646   0013EE  EFFB  F009         	goto	l1039
   647   0013F2                     u320:
   648   0013F2                     
   649                           ;MCAL_layer/GPIO/hal_gpio.c: 155:        }
   650   0013F2  EF0B  F00A         	goto	l93
   651   0013F6                     l1039:
   652                           
   653                           ;MCAL_layer/GPIO/hal_gpio.c: 157:        {;MCAL_layer/GPIO/hal_gpio.c: 158:            *
      +                          TRIS_register[_PORT_] = direction;
   654   0013F6  502C               	movf	gpio_port_direction_init@_PORT_^0,w,c
   655   0013F8  0D02               	mullw	2
   656   0013FA  50F3               	movf	243,w,c
   657   0013FC  0F15               	addlw	low _TRIS_register
   658   0013FE  6ED9               	movwf	fsr2l,c
   659   001400  6ADA               	clrf	fsr2h,c
   660   001402  CFDE F02A          	movff	postinc2,??_gpio_port_direction_init
   661   001406  CFDD F02B          	movff	postdec2,??_gpio_port_direction_init+1
   662   00140A  C02A  FFD9         	movff	??_gpio_port_direction_init,fsr2l
   663   00140E  C02B  FFDA         	movff	??_gpio_port_direction_init+1,fsr2h
   664   001412  C029  FFDF         	movff	gpio_port_direction_init@direction,indf2
   665   001416                     l93:
   666   001416  0012               	return		;funcret
   667   001418                     __end_of_gpio_port_direction_init:
   668                           	callstack 0
   669                           
   670 ;; *************** function _gpio_pin_write_logic *****************
   671 ;; Defined at:
   672 ;;		line 80 in file "MCAL_layer/GPIO/hal_gpio.c"
   673 ;; Parameters:    Size  Location     Type
   674 ;;  _PIN_           1    0[COMRAM] PTR const struct .
   675 ;;		 -> led_8(1), led_7(1), led_6(1), led_5(1), 
   676 ;;		 -> led_4(1), led_3(1), led_2(1), led_1(1), 
   677 ;;		 -> gpio_pin_intialize@_pin_config(2), 
   678 ;;  logic           1    1[COMRAM] enum E2750
   679 ;; Auto vars:     Size  Location     Type
   680 ;;  ret             1    7[COMRAM] unsigned char 
   681 ;; Return value:  Size  Location     Type
   682 ;;                  1    wreg      unsigned char 
   683 ;; Registers used:
   684 ;;		wreg, fsr2l, fsr2h, status,2, status,0, prodl, prodh
   685 ;; Tracked objects:
   686 ;;		On entry : 0/0
   687 ;;		On exit  : 0/0
   688 ;;		Unchanged: 0/0
   689 ;; Data sizes:     COMRAM   BANK0   BANK1   BANK2   BANK3   BANK4   BANK5   BANK6   BANK7   BANK8   BANK9  BANK10  BANK1
      +1  BANK12  BANK13  BANK14  BANK15
   690 ;;      Params:         2       0       0       0       0       0       0       0       0       0       0       0       
      +0       0       0       0       0
   691 ;;      Locals:         1       0       0       0       0       0       0       0       0       0       0       0       
      +0       0       0       0       0
   692 ;;      Temps:          5       0       0       0       0       0       0       0       0       0       0       0       
      +0       0       0       0       0
   693 ;;      Totals:         8       0       0       0       0       0       0       0       0       0       0       0       
      +0       0       0       0       0
   694 ;;Total ram usage:        8 bytes
   695 ;; Hardware stack levels used: 1
   696 ;; This function calls:
   697 ;;		Nothing
   698 ;; This function is called by:
   699 ;;		_init
   700 ;;		_init2
   701 ;;		_gpio_pin_intialize
   702 ;; This function uses a non-reentrant model
   703 ;;
   704                           
   705                           	psect	text4
   706   001114                     __ptext4:
   707                           	callstack 0
   708   001114                     _gpio_pin_write_logic:
   709                           	callstack 29
   710   001114                     
   711                           ;MCAL_layer/GPIO/hal_gpio.c: 80: STD_TeturnType gpio_pin_write_logic(const Pin_config *_
      +                          PIN_,Logic_t logic);MCAL_layer/GPIO/hal_gpio.c: 81: {;MCAL_layer/GPIO/hal_gpio.c: 82:   
      +                               STD_TeturnType ret = (STD_TeturnType)0x01;
   712   001114  0E01               	movlw	1
   713   001116  6E30               	movwf	gpio_pin_write_logic@ret^0,c
   714                           
   715                           ;MCAL_layer/GPIO/hal_gpio.c: 83:         if(_PIN_ == ((void*)0) ||_PIN_->pin_num > 8 -1)
   716   001118  5029               	movf	gpio_pin_write_logic@_PIN_^0,w,c
   717   00111A  B4D8               	btfsc	status,2,c
   718   00111C  EF92  F008         	goto	u281
   719   001120  EF94  F008         	goto	u280
   720   001124                     u281:
   721   001124  EFA4  F008         	goto	l1015
   722   001128                     u280:
   723   001128  5029               	movf	gpio_pin_write_logic@_PIN_^0,w,c
   724   00112A  6ED9               	movwf	fsr2l,c
   725   00112C  6ADA               	clrf	fsr2h,c
   726   00112E  30DF               	rrcf	223,w,c
   727   001130  32E8               	rrcf	wreg,f,c
   728   001132  32E8               	rrcf	wreg,f,c
   729   001134  0B07               	andlw	7
   730   001136  6E2B               	movwf	??_gpio_pin_write_logic^0,c
   731   001138  0E07               	movlw	7
   732   00113A  642B               	cpfsgt	??_gpio_pin_write_logic^0,c
   733   00113C  EFA2  F008         	goto	u291
   734   001140  EFA4  F008         	goto	u290
   735   001144                     u291:
   736   001144  EFFB  F008         	goto	l1023
   737   001148                     u290:
   738   001148                     l1015:
   739                           
   740                           ;MCAL_layer/GPIO/hal_gpio.c: 84:         {;MCAL_layer/GPIO/hal_gpio.c: 85:             r
      +                          et = (STD_TeturnType)0x00;
   741   001148  0E00               	movlw	0
   742   00114A  6E30               	movwf	gpio_pin_write_logic@ret^0,c
   743                           
   744                           ;MCAL_layer/GPIO/hal_gpio.c: 86:         }
   745   00114C  EF10  F009         	goto	l1025
   746   001150                     l1017:
   747                           
   748                           ;MCAL_layer/GPIO/hal_gpio.c: 92:                     *LAT_register[_PIN_->port] |= (1<<_
      +                          PIN_->pin_num);
   749   001150  5029               	movf	gpio_pin_write_logic@_PIN_^0,w,c
   750   001152  6ED9               	movwf	fsr2l,c
   751   001154  6ADA               	clrf	fsr2h,c
   752   001156  30DF               	rrcf	223,w,c
   753   001158  32E8               	rrcf	wreg,f,c
   754   00115A  32E8               	rrcf	wreg,f,c
   755   00115C  0B07               	andlw	7
   756   00115E  6E2B               	movwf	??_gpio_pin_write_logic^0,c
   757   001160  0E01               	movlw	1
   758   001162  6E2C               	movwf	(??_gpio_pin_write_logic+1)^0,c
   759   001164  2A2B               	incf	??_gpio_pin_write_logic^0,f,c
   760   001166  EFB7  F008         	goto	u304
   761   00116A                     u305:
   762   00116A  90D8               	bcf	status,0,c
   763   00116C  362C               	rlcf	(??_gpio_pin_write_logic+1)^0,f,c
   764   00116E                     u304:
   765   00116E  2E2B               	decfsz	??_gpio_pin_write_logic^0,f,c
   766   001170  EFB5  F008         	goto	u305
   767   001174  5029               	movf	gpio_pin_write_logic@_PIN_^0,w,c
   768   001176  6ED9               	movwf	fsr2l,c
   769   001178  6ADA               	clrf	fsr2h,c
   770   00117A  50DF               	movf	223,w,c
   771   00117C  0B07               	andlw	7
   772   00117E  0D02               	mullw	2
   773   001180  50F3               	movf	243,w,c
   774   001182  0F0B               	addlw	low _LAT_register
   775   001184  6ED9               	movwf	fsr2l,c
   776   001186  6ADA               	clrf	fsr2h,c
   777   001188  CFDE F02D          	movff	postinc2,??_gpio_pin_write_logic+2
   778   00118C  CFDD F02E          	movff	postdec2,??_gpio_pin_write_logic+3
   779   001190  C02D  FFD9         	movff	??_gpio_pin_write_logic+2,fsr2l
   780   001194  C02E  FFDA         	movff	??_gpio_pin_write_logic+3,fsr2h
   781   001198  502C               	movf	(??_gpio_pin_write_logic+1)^0,w,c
   782   00119A  12DF               	iorwf	indf2,f,c
   783                           
   784                           ;MCAL_layer/GPIO/hal_gpio.c: 93:                     break;
   785   00119C  EF10  F009         	goto	l1025
   786   0011A0                     l1019:
   787                           
   788                           ;MCAL_layer/GPIO/hal_gpio.c: 95:                     *LAT_register[_PIN_->port] &= ~(1<<
      +                          _PIN_->pin_num);
   789   0011A0  5029               	movf	gpio_pin_write_logic@_PIN_^0,w,c
   790   0011A2  6ED9               	movwf	fsr2l,c
   791   0011A4  6ADA               	clrf	fsr2h,c
   792   0011A6  30DF               	rrcf	223,w,c
   793   0011A8  32E8               	rrcf	wreg,f,c
   794   0011AA  32E8               	rrcf	wreg,f,c
   795   0011AC  0B07               	andlw	7
   796   0011AE  6E2B               	movwf	??_gpio_pin_write_logic^0,c
   797   0011B0  0E01               	movlw	1
   798   0011B2  6E2C               	movwf	(??_gpio_pin_write_logic+1)^0,c
   799   0011B4  2A2B               	incf	??_gpio_pin_write_logic^0,f,c
   800   0011B6  EFDF  F008         	goto	u314
   801   0011BA                     u315:
   802   0011BA  90D8               	bcf	status,0,c
   803   0011BC  362C               	rlcf	(??_gpio_pin_write_logic+1)^0,f,c
   804   0011BE                     u314:
   805   0011BE  2E2B               	decfsz	??_gpio_pin_write_logic^0,f,c
   806   0011C0  EFDD  F008         	goto	u315
   807   0011C4  502C               	movf	(??_gpio_pin_write_logic+1)^0,w,c
   808   0011C6  0AFF               	xorlw	255
   809   0011C8  6E2D               	movwf	(??_gpio_pin_write_logic+2)^0,c
   810   0011CA  5029               	movf	gpio_pin_write_logic@_PIN_^0,w,c
   811   0011CC  6ED9               	movwf	fsr2l,c
   812   0011CE  6ADA               	clrf	fsr2h,c
   813   0011D0  50DF               	movf	223,w,c
   814   0011D2  0B07               	andlw	7
   815   0011D4  0D02               	mullw	2
   816   0011D6  50F3               	movf	243,w,c
   817   0011D8  0F0B               	addlw	low _LAT_register
   818   0011DA  6ED9               	movwf	fsr2l,c
   819   0011DC  6ADA               	clrf	fsr2h,c
   820   0011DE  CFDE F02E          	movff	postinc2,??_gpio_pin_write_logic+3
   821   0011E2  CFDD F02F          	movff	postdec2,??_gpio_pin_write_logic+4
   822   0011E6  C02E  FFD9         	movff	??_gpio_pin_write_logic+3,fsr2l
   823   0011EA  C02F  FFDA         	movff	??_gpio_pin_write_logic+4,fsr2h
   824   0011EE  502D               	movf	(??_gpio_pin_write_logic+2)^0,w,c
   825   0011F0  16DF               	andwf	indf2,f,c
   826                           
   827                           ;MCAL_layer/GPIO/hal_gpio.c: 96:                     break;
   828   0011F2  EF10  F009         	goto	l1025
   829   0011F6                     l1023:
   830   0011F6  502A               	movf	gpio_pin_write_logic@logic^0,w,c
   831   0011F8  6E2B               	movwf	??_gpio_pin_write_logic^0,c
   832   0011FA  6A2C               	clrf	(??_gpio_pin_write_logic+1)^0,c
   833                           
   834                           ; Switch on 2 bytes has been partitioned into a top level switch of size 1, and 1 sub-sw
      +                          itches
   835                           ; Switch size 1, requested type "simple"
   836                           ; Number of cases is 1, Range of values is 0 to 0
   837                           ; switch strategies available:
   838                           ; Name         Instructions Cycles
   839                           ; simple_byte            4     3 (average)
   840                           ;	Chosen strategy is simple_byte
   841   0011FC  502C               	movf	(??_gpio_pin_write_logic+1)^0,w,c
   842   0011FE  0A00               	xorlw	0	; case 0
   843   001200  B4D8               	btfsc	status,2,c
   844   001202  EF05  F009         	goto	l1105
   845   001206  EFA4  F008         	goto	l1015
   846   00120A                     l1105:
   847                           
   848                           ; Switch size 1, requested type "simple"
   849                           ; Number of cases is 2, Range of values is 0 to 1
   850                           ; switch strategies available:
   851                           ; Name         Instructions Cycles
   852                           ; simple_byte            7     4 (average)
   853                           ;	Chosen strategy is simple_byte
   854   00120A  502B               	movf	??_gpio_pin_write_logic^0,w,c
   855   00120C  0A00               	xorlw	0	; case 0
   856   00120E  B4D8               	btfsc	status,2,c
   857   001210  EFD0  F008         	goto	l1019
   858   001214  0A01               	xorlw	1	; case 1
   859   001216  B4D8               	btfsc	status,2,c
   860   001218  EFA8  F008         	goto	l1017
   861   00121C  EFA4  F008         	goto	l1015
   862   001220                     l1025:
   863                           
   864                           ;MCAL_layer/GPIO/hal_gpio.c: 101:         return ret;
   865   001220  5030               	movf	gpio_pin_write_logic@ret^0,w,c
   866   001222  0012               	return		;funcret
   867   001224                     __end_of_gpio_pin_write_logic:
   868                           	callstack 0
   869                           
   870 ;; *************** function _gpio_pin_read_logic *****************
   871 ;; Defined at:
   872 ;;		line 110 in file "MCAL_layer/GPIO/hal_gpio.c"
   873 ;; Parameters:    Size  Location     Type
   874 ;;  _PIN_           1    0[COMRAM] PTR const struct .
   875 ;;		 -> btn_2(1), btn_1(1), 
   876 ;;  logic           1    1[COMRAM] PTR enum E2750
   877 ;;		 -> state1(1), state(1), 
   878 ;; Auto vars:     Size  Location     Type
   879 ;;  ret             1    0        unsigned char 
   880 ;; Return value:  Size  Location     Type
   881 ;;                  1    wreg      unsigned char 
   882 ;; Registers used:
   883 ;;		wreg, fsr1l, fsr1h, fsr2l, fsr2h, status,2, status,0, prodl, prodh
   884 ;; Tracked objects:
   885 ;;		On entry : 0/0
   886 ;;		On exit  : 0/0
   887 ;;		Unchanged: 0/0
   888 ;; Data sizes:     COMRAM   BANK0   BANK1   BANK2   BANK3   BANK4   BANK5   BANK6   BANK7   BANK8   BANK9  BANK10  BANK1
      +1  BANK12  BANK13  BANK14  BANK15
   889 ;;      Params:         2       0       0       0       0       0       0       0       0       0       0       0       
      +0       0       0       0       0
   890 ;;      Locals:         0       0       0       0       0       0       0       0       0       0       0       0       
      +0       0       0       0       0
   891 ;;      Temps:          4       0       0       0       0       0       0       0       0       0       0       0       
      +0       0       0       0       0
   892 ;;      Totals:         6       0       0       0       0       0       0       0       0       0       0       0       
      +0       0       0       0       0
   893 ;;Total ram usage:        6 bytes
   894 ;; Hardware stack levels used: 1
   895 ;; This function calls:
   896 ;;		Nothing
   897 ;; This function is called by:
   898 ;;		_main
   899 ;; This function uses a non-reentrant model
   900 ;;
   901                           
   902                           	psect	text5
   903   001224                     __ptext5:
   904                           	callstack 0
   905   001224                     _gpio_pin_read_logic:
   906                           	callstack 30
   907   001224                     
   908                           ;MCAL_layer/GPIO/hal_gpio.c: 113:         if(_PIN_ == ((void*)0) ||logic == ((void*)0))
   909   001224  5029               	movf	gpio_pin_read_logic@_PIN_^0,w,c
   910   001226  B4D8               	btfsc	status,2,c
   911   001228  EF18  F009         	goto	u381
   912   00122C  EF1A  F009         	goto	u380
   913   001230                     u381:
   914   001230  EF22  F009         	goto	l1065
   915   001234                     u380:
   916   001234  502A               	movf	gpio_pin_read_logic@logic^0,w,c
   917   001236  A4D8               	btfss	status,2,c
   918   001238  EF20  F009         	goto	u391
   919   00123C  EF22  F009         	goto	u390
   920   001240                     u391:
   921   001240  EF24  F009         	goto	l1067
   922   001244                     u390:
   923   001244                     l1065:
   924                           
   925                           ;MCAL_layer/GPIO/hal_gpio.c: 116:         }
   926   001244  EF4E  F009         	goto	l83
   927   001248                     l1067:
   928                           
   929                           ;MCAL_layer/GPIO/hal_gpio.c: 118:         {;MCAL_layer/GPIO/hal_gpio.c: 119:          *l
      +                          ogic = ((*PORT_register[_PIN_->port]>>_PIN_->pin_num) & 1);
   930   001248  502A               	movf	gpio_pin_read_logic@logic^0,w,c
   931   00124A  6ED9               	movwf	fsr2l,c
   932   00124C  6ADA               	clrf	fsr2h,c
   933   00124E  5029               	movf	gpio_pin_read_logic@_PIN_^0,w,c
   934   001250  6EE1               	movwf	fsr1l,c
   935   001252  6AE2               	clrf	fsr1h,c
   936   001254  30E7               	rrcf	231,w,c
   937   001256  32E8               	rrcf	wreg,f,c
   938   001258  32E8               	rrcf	wreg,f,c
   939   00125A  0B07               	andlw	7
   940   00125C  6E2B               	movwf	??_gpio_pin_read_logic^0,c
   941   00125E  5029               	movf	gpio_pin_read_logic@_PIN_^0,w,c
   942   001260  6EE1               	movwf	fsr1l,c
   943   001262  6AE2               	clrf	fsr1h,c
   944   001264  50E7               	movf	231,w,c
   945   001266  0B07               	andlw	7
   946   001268  0D02               	mullw	2
   947   00126A  50F3               	movf	243,w,c
   948   00126C  0F01               	addlw	low _PORT_register
   949   00126E  6EE1               	movwf	fsr1l,c
   950   001270  6AE2               	clrf	fsr1h,c
   951   001272  CFE6 F02C          	movff	postinc1,??_gpio_pin_read_logic+1
   952   001276  CFE5 F02D          	movff	postdec1,??_gpio_pin_read_logic+2
   953   00127A  C02C  FFE1         	movff	??_gpio_pin_read_logic+1,fsr1l
   954   00127E  C02D  FFE2         	movff	??_gpio_pin_read_logic+2,fsr1h
   955   001282  50E7               	movf	indf1,w,c
   956   001284  6E2E               	movwf	(??_gpio_pin_read_logic+3)^0,c
   957   001286  2A2B               	incf	??_gpio_pin_read_logic^0,f,c
   958   001288  EF48  F009         	goto	u404
   959   00128C                     u405:
   960   00128C  90D8               	bcf	status,0,c
   961   00128E  322E               	rrcf	(??_gpio_pin_read_logic+3)^0,f,c
   962   001290                     u404:
   963   001290  2E2B               	decfsz	??_gpio_pin_read_logic^0,f,c
   964   001292  EF46  F009         	goto	u405
   965   001296  502E               	movf	(??_gpio_pin_read_logic+3)^0,w,c
   966   001298  0B01               	andlw	1
   967   00129A  6EDF               	movwf	indf2,c
   968   00129C                     l83:
   969   00129C  0012               	return		;funcret
   970   00129E                     __end_of_gpio_pin_read_logic:
   971                           	callstack 0
   972                           
   973 ;; *************** function _gpio_pin_direction_init *****************
   974 ;; Defined at:
   975 ;;		line 32 in file "MCAL_layer/GPIO/hal_gpio.c"
   976 ;; Parameters:    Size  Location     Type
   977 ;;  _PIN_           1    0[COMRAM] PTR const struct .
   978 ;;		 -> btn_2(1), btn_1(1), gpio_pin_intialize@_pin_config(2), 
   979 ;; Auto vars:     Size  Location     Type
   980 ;;  ret             1    6[COMRAM] unsigned char 
   981 ;; Return value:  Size  Location     Type
   982 ;;                  1    wreg      unsigned char 
   983 ;; Registers used:
   984 ;;		wreg, fsr2l, fsr2h, status,2, status,0, prodl, prodh
   985 ;; Tracked objects:
   986 ;;		On entry : 0/0
   987 ;;		On exit  : 0/0
   988 ;;		Unchanged: 0/0
   989 ;; Data sizes:     COMRAM   BANK0   BANK1   BANK2   BANK3   BANK4   BANK5   BANK6   BANK7   BANK8   BANK9  BANK10  BANK1
      +1  BANK12  BANK13  BANK14  BANK15
   990 ;;      Params:         1       0       0       0       0       0       0       0       0       0       0       0       
      +0       0       0       0       0
   991 ;;      Locals:         1       0       0       0       0       0       0       0       0       0       0       0       
      +0       0       0       0       0
   992 ;;      Temps:          5       0       0       0       0       0       0       0       0       0       0       0       
      +0       0       0       0       0
   993 ;;      Totals:         7       0       0       0       0       0       0       0       0       0       0       0       
      +0       0       0       0       0
   994 ;;Total ram usage:        7 bytes
   995 ;; Hardware stack levels used: 1
   996 ;; This function calls:
   997 ;;		Nothing
   998 ;; This function is called by:
   999 ;;		_main
  1000 ;;		_gpio_pin_intialize
  1001 ;; This function uses a non-reentrant model
  1002 ;;
  1003                           
  1004                           	psect	text6
  1005   001002                     __ptext6:
  1006                           	callstack 0
  1007   001002                     _gpio_pin_direction_init:
  1008                           	callstack 30
  1009   001002                     
  1010                           ;MCAL_layer/GPIO/hal_gpio.c: 32: STD_TeturnType gpio_pin_direction_init (const Pin_confi
      +                          g *_PIN_);MCAL_layer/GPIO/hal_gpio.c: 33: {;MCAL_layer/GPIO/hal_gpio.c: 34:     STD_Tetu
      +                          rnType ret = (STD_TeturnType)0x01;
  1011   001002  0E01               	movlw	1
  1012   001004  6E2F               	movwf	gpio_pin_direction_init@ret^0,c
  1013                           
  1014                           ;MCAL_layer/GPIO/hal_gpio.c: 35:     if(_PIN_ == ((void*)0) || _PIN_ ->pin_num > 8 -1)
  1015   001006  5029               	movf	gpio_pin_direction_init@_PIN_^0,w,c
  1016   001008  B4D8               	btfsc	status,2,c
  1017   00100A  EF09  F008         	goto	u331
  1018   00100E  EF0B  F008         	goto	u330
  1019   001012                     u331:
  1020   001012  EF1B  F008         	goto	l1047
  1021   001016                     u330:
  1022   001016  5029               	movf	gpio_pin_direction_init@_PIN_^0,w,c
  1023   001018  6ED9               	movwf	fsr2l,c
  1024   00101A  6ADA               	clrf	fsr2h,c
  1025   00101C  30DF               	rrcf	223,w,c
  1026   00101E  32E8               	rrcf	wreg,f,c
  1027   001020  32E8               	rrcf	wreg,f,c
  1028   001022  0B07               	andlw	7
  1029   001024  6E2A               	movwf	??_gpio_pin_direction_init^0,c
  1030   001026  0E07               	movlw	7
  1031   001028  642A               	cpfsgt	??_gpio_pin_direction_init^0,c
  1032   00102A  EF19  F008         	goto	u341
  1033   00102E  EF1B  F008         	goto	u340
  1034   001032                     u341:
  1035   001032  EF72  F008         	goto	l1055
  1036   001036                     u340:
  1037   001036                     l1047:
  1038                           
  1039                           ;MCAL_layer/GPIO/hal_gpio.c: 36:     {;MCAL_layer/GPIO/hal_gpio.c: 37:         ret = (ST
      +                          D_TeturnType)0x00;
  1040   001036  0E00               	movlw	0
  1041   001038  6E2F               	movwf	gpio_pin_direction_init@ret^0,c
  1042                           
  1043                           ;MCAL_layer/GPIO/hal_gpio.c: 38:     }
  1044   00103A  EF88  F008         	goto	l1057
  1045   00103E                     l1049:
  1046                           
  1047                           ;MCAL_layer/GPIO/hal_gpio.c: 44:             *TRIS_register[_PIN_->port] &= ~(1<<_PIN_->
      +                          pin_num);
  1048   00103E  5029               	movf	gpio_pin_direction_init@_PIN_^0,w,c
  1049   001040  6ED9               	movwf	fsr2l,c
  1050   001042  6ADA               	clrf	fsr2h,c
  1051   001044  30DF               	rrcf	223,w,c
  1052   001046  32E8               	rrcf	wreg,f,c
  1053   001048  32E8               	rrcf	wreg,f,c
  1054   00104A  0B07               	andlw	7
  1055   00104C  6E2A               	movwf	??_gpio_pin_direction_init^0,c
  1056   00104E  0E01               	movlw	1
  1057   001050  6E2B               	movwf	(??_gpio_pin_direction_init+1)^0,c
  1058   001052  2A2A               	incf	??_gpio_pin_direction_init^0,f,c
  1059   001054  EF2E  F008         	goto	u354
  1060   001058                     u355:
  1061   001058  90D8               	bcf	status,0,c
  1062   00105A  362B               	rlcf	(??_gpio_pin_direction_init+1)^0,f,c
  1063   00105C                     u354:
  1064   00105C  2E2A               	decfsz	??_gpio_pin_direction_init^0,f,c
  1065   00105E  EF2C  F008         	goto	u355
  1066   001062  502B               	movf	(??_gpio_pin_direction_init+1)^0,w,c
  1067   001064  0AFF               	xorlw	255
  1068   001066  6E2C               	movwf	(??_gpio_pin_direction_init+2)^0,c
  1069   001068  5029               	movf	gpio_pin_direction_init@_PIN_^0,w,c
  1070   00106A  6ED9               	movwf	fsr2l,c
  1071   00106C  6ADA               	clrf	fsr2h,c
  1072   00106E  50DF               	movf	223,w,c
  1073   001070  0B07               	andlw	7
  1074   001072  0D02               	mullw	2
  1075   001074  50F3               	movf	243,w,c
  1076   001076  0F15               	addlw	low _TRIS_register
  1077   001078  6ED9               	movwf	fsr2l,c
  1078   00107A  6ADA               	clrf	fsr2h,c
  1079   00107C  CFDE F02D          	movff	postinc2,??_gpio_pin_direction_init+3
  1080   001080  CFDD F02E          	movff	postdec2,??_gpio_pin_direction_init+4
  1081   001084  C02D  FFD9         	movff	??_gpio_pin_direction_init+3,fsr2l
  1082   001088  C02E  FFDA         	movff	??_gpio_pin_direction_init+4,fsr2h
  1083   00108C  502C               	movf	(??_gpio_pin_direction_init+2)^0,w,c
  1084   00108E  16DF               	andwf	indf2,f,c
  1085                           
  1086                           ;MCAL_layer/GPIO/hal_gpio.c: 45:         break;
  1087   001090  EF88  F008         	goto	l1057
  1088   001094                     l1051:
  1089                           
  1090                           ;MCAL_layer/GPIO/hal_gpio.c: 47:              *TRIS_register[_PIN_->port] |= (1<<_PIN_->
      +                          pin_num);
  1091   001094  5029               	movf	gpio_pin_direction_init@_PIN_^0,w,c
  1092   001096  6ED9               	movwf	fsr2l,c
  1093   001098  6ADA               	clrf	fsr2h,c
  1094   00109A  30DF               	rrcf	223,w,c
  1095   00109C  32E8               	rrcf	wreg,f,c
  1096   00109E  32E8               	rrcf	wreg,f,c
  1097   0010A0  0B07               	andlw	7
  1098   0010A2  6E2A               	movwf	??_gpio_pin_direction_init^0,c
  1099   0010A4  0E01               	movlw	1
  1100   0010A6  6E2B               	movwf	(??_gpio_pin_direction_init+1)^0,c
  1101   0010A8  2A2A               	incf	??_gpio_pin_direction_init^0,f,c
  1102   0010AA  EF59  F008         	goto	u364
  1103   0010AE                     u365:
  1104   0010AE  90D8               	bcf	status,0,c
  1105   0010B0  362B               	rlcf	(??_gpio_pin_direction_init+1)^0,f,c
  1106   0010B2                     u364:
  1107   0010B2  2E2A               	decfsz	??_gpio_pin_direction_init^0,f,c
  1108   0010B4  EF57  F008         	goto	u365
  1109   0010B8  5029               	movf	gpio_pin_direction_init@_PIN_^0,w,c
  1110   0010BA  6ED9               	movwf	fsr2l,c
  1111   0010BC  6ADA               	clrf	fsr2h,c
  1112   0010BE  50DF               	movf	223,w,c
  1113   0010C0  0B07               	andlw	7
  1114   0010C2  0D02               	mullw	2
  1115   0010C4  50F3               	movf	243,w,c
  1116   0010C6  0F15               	addlw	low _TRIS_register
  1117   0010C8  6ED9               	movwf	fsr2l,c
  1118   0010CA  6ADA               	clrf	fsr2h,c
  1119   0010CC  CFDE F02C          	movff	postinc2,??_gpio_pin_direction_init+2
  1120   0010D0  CFDD F02D          	movff	postdec2,??_gpio_pin_direction_init+3
  1121   0010D4  C02C  FFD9         	movff	??_gpio_pin_direction_init+2,fsr2l
  1122   0010D8  C02D  FFDA         	movff	??_gpio_pin_direction_init+3,fsr2h
  1123   0010DC  502B               	movf	(??_gpio_pin_direction_init+1)^0,w,c
  1124   0010DE  12DF               	iorwf	indf2,f,c
  1125                           
  1126                           ;MCAL_layer/GPIO/hal_gpio.c: 48:         break;
  1127   0010E0  EF88  F008         	goto	l1057
  1128   0010E4                     l1055:
  1129   0010E4  5029               	movf	gpio_pin_direction_init@_PIN_^0,w,c
  1130   0010E6  6ED9               	movwf	fsr2l,c
  1131   0010E8  6ADA               	clrf	fsr2h,c
  1132   0010EA  BCDF               	btfsc	indf2,6,c
  1133   0010EC  EF7A  F008         	goto	u371
  1134   0010F0  EF7D  F008         	goto	u370
  1135   0010F4                     u371:
  1136   0010F4  0E01               	movlw	1
  1137   0010F6  EF7E  F008         	goto	u376
  1138   0010FA                     u370:
  1139   0010FA  0E00               	movlw	0
  1140   0010FC                     u376:
  1141                           
  1142                           ; Switch size 1, requested type "simple"
  1143                           ; Number of cases is 2, Range of values is 0 to 1
  1144                           ; switch strategies available:
  1145                           ; Name         Instructions Cycles
  1146                           ; simple_byte            7     4 (average)
  1147                           ;	Chosen strategy is simple_byte
  1148   0010FC  0A00               	xorlw	0	; case 0
  1149   0010FE  B4D8               	btfsc	status,2,c
  1150   001100  EF1F  F008         	goto	l1049
  1151   001104  0A01               	xorlw	1	; case 1
  1152   001106  B4D8               	btfsc	status,2,c
  1153   001108  EF4A  F008         	goto	l1051
  1154   00110C  EF1B  F008         	goto	l1047
  1155   001110                     l1057:
  1156                           
  1157                           ;MCAL_layer/GPIO/hal_gpio.c: 53:     return ret;
  1158   001110  502F               	movf	gpio_pin_direction_init@ret^0,w,c
  1159   001112  0012               	return		;funcret
  1160   001114                     __end_of_gpio_pin_direction_init:
  1161                           	callstack 0
  1162                           
  1163                           	psect	smallconst
  1164   001000                     __psmallconst:
  1165                           	callstack 0
  1166   001000  00                 	db	0
  1167   001001  00                 	db	0	; dummy byte at the end
  1168   000000                     
  1169                           	psect	rparam
  1170   000000                     tosu	equ	0xFFF
  1171                           tosh	equ	0xFFE
  1172                           tosl	equ	0xFFD
  1173                           stkptr	equ	0xFFC
  1174                           pclatu	equ	0xFFB
  1175                           pclath	equ	0xFFA
  1176                           pcl	equ	0xFF9
  1177                           tblptru	equ	0xFF8
  1178                           tblptrh	equ	0xFF7
  1179                           tblptrl	equ	0xFF6
  1180                           tablat	equ	0xFF5
  1181                           prodh	equ	0xFF4
  1182                           prodl	equ	0xFF3
  1183                           indf0	equ	0xFEF
  1184                           postinc0	equ	0xFEE
  1185                           postdec0	equ	0xFED
  1186                           preinc0	equ	0xFEC
  1187                           plusw0	equ	0xFEB
  1188                           fsr0h	equ	0xFEA
  1189                           fsr0l	equ	0xFE9
  1190                           wreg	equ	0xFE8
  1191                           indf1	equ	0xFE7
  1192                           postinc1	equ	0xFE6
  1193                           postdec1	equ	0xFE5
  1194                           preinc1	equ	0xFE4
  1195                           plusw1	equ	0xFE3
  1196                           fsr1h	equ	0xFE2
  1197                           fsr1l	equ	0xFE1
  1198                           bsr	equ	0xFE0
  1199                           indf2	equ	0xFDF
  1200                           postinc2	equ	0xFDE
  1201                           postdec2	equ	0xFDD
  1202                           preinc2	equ	0xFDC
  1203                           plusw2	equ	0xFDB
  1204                           fsr2h	equ	0xFDA
  1205                           fsr2l	equ	0xFD9
  1206                           status	equ	0xFD8

Data Sizes:
    Strings     0
    Constant    0
    Data        40
    BSS         4
    Persistent  0
    Stack       0

Auto Spaces:
    Space          Size  Autos    Used
    COMRAM          127      8      52
    BANK0           128      0       0
    BANK1           256      0       0
    BANK2           256      0       0
    BANK3           256      0       0
    BANK4           256      0       0
    BANK5           256      0       0
    BANK6           256      0       0
    BANK7           256      0       0
    BANK8           256      0       0
    BANK9           256      0       0
    BANK10          256      0       0
    BANK11          256      0       0
    BANK12          256      0       0
    BANK13          256      0       0
    BANK14          256      0       0
    BANK15          128      0       0

Pointer List with Targets:

    gpio_pin_direction_init@_PIN_	PTR const struct . size(1) Largest target is 2
		 -> btn_1(COMRAM[1]), btn_2(COMRAM[1]), gpio_pin_intialize@_pin_config(COMRAM[2]), 

    gpio_pin_read_logic@_PIN_	PTR const struct . size(1) Largest target is 1
		 -> btn_1(COMRAM[1]), btn_2(COMRAM[1]), 

    gpio_pin_read_logic@logic	PTR enum E2750 size(1) Largest target is 1
		 -> state(COMRAM[1]), state1(COMRAM[1]), 

    gpio_pin_write_logic@_PIN_	PTR const struct . size(1) Largest target is 2
		 -> gpio_pin_intialize@_pin_config(COMRAM[2]), led_1(COMRAM[1]), led_2(COMRAM[1]), led_3(COMRAM[1]), 
		 -> led_4(COMRAM[1]), led_5(COMRAM[1]), led_6(COMRAM[1]), led_7(COMRAM[1]), 
		 -> led_8(COMRAM[1]), 

    LAT_register	PTR volatile unsigned char [5] size(2) Largest target is 1
		 -> LATA(BITBIGSFRll[1]), LATB(BITBIGSFRlh[1]), LATC(BITBIGSFRlh[1]), LATD(BITBIGSFRlh[1]), 
		 -> LATE(BITBIGSFRlh[1]), 

    PORT_register	PTR volatile unsigned char [5] size(2) Largest target is 1
		 -> PORTA(BITBIGSFRll[1]), PORTB(BITBIGSFRll[1]), PORTC(BITBIGSFRll[1]), PORTD(BITBIGSFRll[1]), 
		 -> PORTE(BITBIGSFRll[1]), 

    TRIS_register	PTR volatile unsigned char [5] size(2) Largest target is 1
		 -> TRISA(BITBIGSFRll[1]), TRISB(BITBIGSFRh[1]), TRISC(BITBIGSFRh[1]), TRISD(BITBIGSFRh[1]), 
		 -> TRISE(BITBIGSFRh[1]), 


Critical Paths under _main in COMRAM

    _init2->_gpio_pin_write_logic
    _init->_gpio_pin_write_logic

Critical Paths under _main in BANK0

    None.

Critical Paths under _main in BANK1

    None.

Critical Paths under _main in BANK2

    None.

Critical Paths under _main in BANK3

    None.

Critical Paths under _main in BANK4

    None.

Critical Paths under _main in BANK5

    None.

Critical Paths under _main in BANK6

    None.

Critical Paths under _main in BANK7

    None.

Critical Paths under _main in BANK8

    None.

Critical Paths under _main in BANK9

    None.

Critical Paths under _main in BANK10

    None.

Critical Paths under _main in BANK11

    None.

Critical Paths under _main in BANK12

    None.

Critical Paths under _main in BANK13

    None.

Critical Paths under _main in BANK14

    None.

Critical Paths under _main in BANK15

    None.

Call Graph Tables:

 ---------------------------------------------------------------------------------
 (Depth) Function   	        Calls       Base Space   Used Autos Params    Refs
 ---------------------------------------------------------------------------------
 (0) _main                                                 0     0      0    7261
            _gpio_pin_direction_init
                _gpio_pin_read_logic
           _gpio_port_direction_init
                               _init
                              _init2
 ---------------------------------------------------------------------------------
 (1) _init2                                                0     0      0    3065
               _gpio_pin_write_logic
           _gpio_port_direction_init
 ---------------------------------------------------------------------------------
 (1) _init                                                 0     0      0    3065
               _gpio_pin_write_logic
           _gpio_port_direction_init
 ---------------------------------------------------------------------------------
 (2) _gpio_port_direction_init                             5     4      1     302
                                              0 COMRAM     4     3      1
 ---------------------------------------------------------------------------------
 (2) _gpio_pin_write_logic                                 8     6      2    2763
                                              0 COMRAM     8     6      2
 ---------------------------------------------------------------------------------
 (1) _gpio_pin_read_logic                                  7     5      2     422
                                              0 COMRAM     6     4      2
 ---------------------------------------------------------------------------------
 (1) _gpio_pin_direction_init                              7     6      1     407
                                              0 COMRAM     7     6      1
 ---------------------------------------------------------------------------------
 Estimated maximum stack depth 2
 ---------------------------------------------------------------------------------

 Call Graph Graphs:

 _main (ROOT)
   _gpio_pin_direction_init
   _gpio_pin_read_logic
   _gpio_port_direction_init
   _init
     _gpio_pin_write_logic
     _gpio_port_direction_init
   _init2
     _gpio_pin_write_logic
     _gpio_port_direction_init

 Address spaces:
Name               Size   Autos  Total    Cost      Usage
BIGRAM             F7F      0       0      40        0.0%
EEDATA             400      0       0       0        0.0%
BITBANK14          100      0       0      32        0.0%
BANK14             100      0       0      33        0.0%
BITBANK13          100      0       0      30        0.0%
BANK13             100      0       0      31        0.0%
BITBANK12          100      0       0      28        0.0%
BANK12             100      0       0      29        0.0%
BITBANK11          100      0       0      26        0.0%
BANK11             100      0       0      27        0.0%
BITBANK10          100      0       0      24        0.0%
BANK10             100      0       0      25        0.0%
BITBANK9           100      0       0      22        0.0%
BANK9              100      0       0      23        0.0%
BITBANK8           100      0       0      20        0.0%
BANK8              100      0       0      21        0.0%
BITBANK7           100      0       0      18        0.0%
BANK7              100      0       0      19        0.0%
BITBANK6           100      0       0      16        0.0%
BANK6              100      0       0      17        0.0%
BITBANK5           100      0       0      14        0.0%
BANK5              100      0       0      15        0.0%
BITBANK4           100      0       0      12        0.0%
BANK4              100      0       0      13        0.0%
BITBANK3           100      0       0      10        0.0%
BANK3              100      0       0      11        0.0%
BITBANK2           100      0       0       8        0.0%
BANK2              100      0       0       9        0.0%
BITBANK1           100      0       0       6        0.0%
BANK1              100      0       0       7        0.0%
BITBANK15           80      0       0      34        0.0%
BANK15              80      0       0      35        0.0%
BITBANK0            80      0       0       4        0.0%
BANK0               80      0       0       5        0.0%
BITCOMRAM           7F      0       0       0        0.0%
COMRAM              7F      8      34       1       40.9%
BITBIGSFRh          69      0       0      36        0.0%
BITBIGSFRlh          4      0       0      37        0.0%
BITBIGSFRll          4      0       0      38        0.0%
BIGSFR               0      0       0     200        0.0%
BITSFR               0      0       0     200        0.0%
SFR                  0      0       0     200        0.0%
STACK                0      0       0       2        0.0%
NULL                 0      0       0       0        0.0%
ABS                  0      0      34      39        0.0%
DATA                 0      0      34       3        0.0%
CODE                 0      0       0       0        0.0%


Microchip Technology PIC18 Macro Assembler V2.46 build 20240104201356 
Symbol Table                                                                                   Tue Aug 13 22:19:23 2024

                               l57 1112                                 l83 129C  
                               l76 1222                                 l93 1416  
                              l172 1374                                l175 1308  
                              u304 116E                                u320 13F2  
                              u305 116A                                u321 13EE  
                              u330 1016                                u314 11BE  
                              u331 1012                                u315 11BA  
                              u340 1036                                u404 1290  
                              u420 13AE                                u341 1032  
                              u405 128C                                u421 13AA  
                              u430 13C6                                u431 13C2  
                              u280 1128                                u281 1124  
                              u370 10FA                                u354 105C  
                              u290 1148                                u371 10F4  
                              u355 1058                                u291 1144  
                              u364 10B2                                u380 1234  
                              u365 10AE                                u381 1230  
                              u390 1244                                u391 1240  
                              u376 10FC                                _ret 0032  
                              wreg 0FE8                               l1011 1114  
                             l1013 1128                               l1023 11F6  
                             l1015 1148                               l1105 120A  
                             l1017 1150                               l1025 1220  
                             l1033 13E2                               l1051 1094  
                             l1043 1002                               l1019 11A0  
                             l1035 13E2                               l1045 1016  
                             l1061 1224                               l1037 13F2  
                             l1055 10E4                               l1047 1036  
                             l1063 1234                               l1039 13F6  
                             l1071 130A                               l1049 103E  
                             l1057 1110                               l1065 1244  
                             l1073 129E                               l1067 1248  
                             l1091 139E                               l1093 13AE  
                             l1085 1376                               l1095 13B6  
                             l1087 1386                               l1097 13C6  
                             l1089 1392                               l1099 13CE  
                             _LATA 0F89                               _LATB 0F8A  
                             _LATC 0F8B                               _LATD 0F8C  
                             _LATE 0F8D                               _main 1376  
                             _init 130A                               fsr1h 0FE2  
                             fsr2h 0FDA                               indf1 0FE7  
                             indf2 0FDF                               fsr1l 0FE1  
                             fsr2l 0FD9           ?_gpio_pin_direction_init 0029  
                             prodl 0FF3                               start 0000  
                     ___param_bank 0000               _gpio_pin_write_logic 1114  
                            ?_main 0029                              ?_init 0029  
                            _PORTA 0F80                              _PORTB 0F81  
                            _PORTC 0F82                              _PORTD 0F83  
                            _PORTE 0F84                              _TRISA 0F92  
                            _TRISB 0F93                              _TRISC 0F94  
                            _TRISD 0F95                              _TRISE 0F96  
                            _led_1 0028                              _btn_1 0020  
                            _led_2 0027                              _btn_2 001F  
                            _led_3 0026                              _led_4 0025  
                            _led_5 0024                              _led_6 0023  
                            _led_7 0022                              _led_8 0021  
                            _init2 129E                              _state 0034  
                            tablat 0FF5  gpio_port_direction_init@direction 0029  
                            status 0FD8                      _TRIS_register 0015  
                  __initialization 1418                       __end_of_main 13E0  
                     __end_of_init 1376          ?_gpio_port_direction_init 0029  
         gpio_pin_read_logic@_PIN_ 0029              ?_gpio_pin_write_logic 0029  
         gpio_pin_read_logic@logic 002A                             ??_main 0031  
                           ??_init 0031                      __activetblptr 0002  
                           ?_init2 0029                             isa$std 0001  
                           _state1 0033                       __pdataCOMRAM 0001  
                     __mediumconst 0000                             tblptrh 0FF7  
                           tblptrl 0FF6                             tblptru 0FF8  
                       __accesstop 0080            __end_of__initialization 1440  
                    ___rparam_used 0001             ??_gpio_pin_write_logic 002B  
                   __pcstackCOMRAM 0029                      __end_of_init2 130A  
                          ??_init2 0031                            __Hparam 0000  
                          __Lparam 0000                _gpio_pin_read_logic 1224  
                     __psmallconst 1000                            __pcinit 1418  
                          __ramtop 1000                            __ptext0 1376  
                          __ptext1 129E                            __ptext2 130A  
                          __ptext3 13E0                            __ptext4 1114  
                          __ptext5 1224                            __ptext6 1002  
                          _counter 0031               ?_gpio_pin_read_logic 0029  
             end_of_initialization 1440                      __Lmediumconst 0000  
     gpio_pin_direction_init@_PIN_ 0029                            postdec1 0FE5  
                          postdec2 0FDD                            postinc0 0FEE  
                          postinc1 0FE6                            postinc2 0FDE  
            ??_gpio_pin_read_logic 002B           _gpio_port_direction_init 13E0  
          _gpio_pin_direction_init 1002                      __pidataCOMRAM 144A  
              start_initialization 1418     gpio_port_direction_init@_PORT_ 002C  
                      __pbssCOMRAM 0031          ??_gpio_pin_direction_init 002A  
        gpio_pin_write_logic@_PIN_ 0029                       _LAT_register 000B  
        gpio_pin_write_logic@logic 002A                        __smallconst 1000  
  __end_of_gpio_pin_direction_init 1114         ??_gpio_port_direction_init 002A  
          gpio_pin_write_logic@ret 0030                          copy_data0 142C  
                         __Hrparam 0000                           __Lrparam 0000  
      __end_of_gpio_pin_read_logic 129E                           isa$xinst 0000  
     __end_of_gpio_pin_write_logic 1224                      _PORT_register 0001  
 __end_of_gpio_port_direction_init 1418         gpio_pin_direction_init@ret 002F  
